target datalayout = "e-m:e-p270:32:32-p271:32:32-p272:64:64-i64:64-i128:128-f80:128-n8:16:32:64-S128"
target triple = "x86_64-unknown-linux-gnu"

%"class.zmq::io_object_t" = type { %"struct.zmq::i_poll_events", ptr }
%"struct.zmq::i_poll_events" = type { ptr }
%"struct.zmq::i_engine" = type { ptr }
%"struct.zmq::options_t" = type { i32, i32, i64, i8, [256 x i8], i32, i32, i32, i32, i32, i32, i32, i32, i8, %"struct.zmq::atomic_value_t", i32, i32, i32, i32, i32, i32, i64, i32, i32, i8, i32, i8, i8, i8, i8, i8, %"class.std::__cxx11::basic_string", %"class.std::__cxx11::basic_string", %"class.std::__cxx11::basic_string", i32, i32, i32, i32, %"class.std::vector", %"class.std::set", %"class.std::set", %"class.std::set.6", i32, i32, %"class.std::__cxx11::basic_string", %"class.std::__cxx11::basic_string", %"class.std::__cxx11::basic_string", [32 x i8], [32 x i8], [32 x i8], %"class.std::__cxx11::basic_string", %"class.std::__cxx11::basic_string", i32, i32, i8, i32, i8, i32, i8, i16, i32, i32, i32, %"class.std::__cxx11::basic_string", i8, i8, i8, i32, i32, i8, i32, %"class.std::map", i32, %"class.std::__cxx11::basic_string", %"class.std::__cxx11::basic_string", %"class.std::__cxx11::basic_string", %"class.std::__cxx11::basic_string", i8, %"class.std::vector.21", i8, %"class.std::vector.21", i8, %"class.std::vector.21", i8, i32, i8, i32, i32, i32, i32, i32, i8, i32 }
%"struct.zmq::atomic_value_t" = type { %"struct.std::atomic" }
%"struct.std::atomic" = type { %"struct.std::__atomic_base" }
%"struct.std::__atomic_base" = type { i32 }
%"class.std::vector" = type { %"struct.std::_Vector_base" }
%"struct.std::_Vector_base" = type { %"struct.std::_Vector_base<zmq::tcp_address_mask_t, std::allocator<zmq::tcp_address_mask_t>>::_Vector_impl" }
%"struct.std::_Vector_base<zmq::tcp_address_mask_t, std::allocator<zmq::tcp_address_mask_t>>::_Vector_impl" = type { %"struct.std::_Vector_base<zmq::tcp_address_mask_t, std::allocator<zmq::tcp_address_mask_t>>::_Vector_impl_data" }
%"struct.std::_Vector_base<zmq::tcp_address_mask_t, std::allocator<zmq::tcp_address_mask_t>>::_Vector_impl_data" = type { ptr, ptr, ptr }
%"class.std::set" = type { %"class.std::_Rb_tree" }
%"class.std::_Rb_tree" = type { %"struct.std::_Rb_tree<unsigned int, unsigned int, std::_Identity<unsigned int>, std::less<unsigned int>>::_Rb_tree_impl" }
%"struct.std::_Rb_tree<unsigned int, unsigned int, std::_Identity<unsigned int>, std::less<unsigned int>>::_Rb_tree_impl" = type { %"struct.std::_Rb_tree_key_compare", %"struct.std::_Rb_tree_header" }
%"struct.std::_Rb_tree_key_compare" = type { %"struct.std::less" }
%"struct.std::less" = type { i8 }
%"struct.std::_Rb_tree_header" = type { %"struct.std::_Rb_tree_node_base", i64 }
%"struct.std::_Rb_tree_node_base" = type { i32, ptr, ptr, ptr }
%"class.std::set.6" = type { %"class.std::_Rb_tree.7" }
%"class.std::_Rb_tree.7" = type { %"struct.std::_Rb_tree<int, int, std::_Identity<int>, std::less<int>>::_Rb_tree_impl" }
%"struct.std::_Rb_tree<int, int, std::_Identity<int>, std::less<int>>::_Rb_tree_impl" = type { %"struct.std::_Rb_tree_key_compare.11", %"struct.std::_Rb_tree_header" }
%"struct.std::_Rb_tree_key_compare.11" = type { %"struct.std::less.12" }
%"struct.std::less.12" = type { i8 }
%"class.std::map" = type { %"class.std::_Rb_tree.14" }
%"class.std::_Rb_tree.14" = type { %"struct.std::_Rb_tree<std::__cxx11::basic_string<char>, std::pair<const std::__cxx11::basic_string<char>, std::__cxx11::basic_string<char>>, std::_Select1st<std::pair<const std::__cxx11::basic_string<char>, std::__cxx11::basic_string<char>>>, std::less<std::__cxx11::basic_string<char>>>::_Rb_tree_impl" }
%"struct.std::_Rb_tree<std::__cxx11::basic_string<char>, std::pair<const std::__cxx11::basic_string<char>, std::__cxx11::basic_string<char>>, std::_Select1st<std::pair<const std::__cxx11::basic_string<char>, std::__cxx11::basic_string<char>>>, std::less<std::__cxx11::basic_string<char>>>::_Rb_tree_impl" = type { %"struct.std::_Rb_tree_key_compare.18", %"struct.std::_Rb_tree_header" }
%"struct.std::_Rb_tree_key_compare.18" = type { %"struct.std::less.19" }
%"struct.std::less.19" = type { i8 }
%"class.std::vector.21" = type { %"struct.std::_Vector_base.22" }
%"struct.std::_Vector_base.22" = type { %"struct.std::_Vector_base<unsigned char, std::allocator<unsigned char>>::_Vector_impl" }
%"struct.std::_Vector_base<unsigned char, std::allocator<unsigned char>>::_Vector_impl" = type { %"struct.std::_Vector_base<unsigned char, std::allocator<unsigned char>>::_Vector_impl_data" }
%"struct.std::_Vector_base<unsigned char, std::allocator<unsigned char>>::_Vector_impl_data" = type { ptr, ptr, ptr }
%"struct.zmq::endpoint_uri_pair_t" = type <{ %"class.std::__cxx11::basic_string", %"class.std::__cxx11::basic_string", i32, [4 x i8] }>
%"class.std::__cxx11::basic_string" = type { %"struct.std::__cxx11::basic_string<char>::_Alloc_hider", i64, %union.anon }
%"struct.std::__cxx11::basic_string<char>::_Alloc_hider" = type { ptr }
%union.anon = type { i64, [8 x i8] }
%"class.zmq::msg_t" = type { %union.anon.26 }
%union.anon.26 = type { %struct.anon }
%struct.anon = type { ptr, [34 x i8], i8, i8, i32, %"union.zmq::msg_t::group_t" }
%"union.zmq::msg_t::group_t" = type { %struct.anon.28 }
%struct.anon.28 = type { i8, ptr }
%"class.zmq::stream_engine_base_t" = type <{ %"class.zmq::io_object_t", %"struct.zmq::i_engine", %"struct.zmq::options_t", ptr, i64, ptr, ptr, i64, ptr, ptr, { i64, i64 }, { i64, i64 }, ptr, i8, i8, [6 x i8], %"struct.zmq::endpoint_uri_pair_t", i8, i8, i8, i8, [4 x i8], %"class.std::__cxx11::basic_string", i32, [4 x i8], ptr, i8, i8, [6 x i8], %"class.zmq::msg_t", i8, [7 x i8], ptr, ptr, i8, [7 x i8] }>

; Function Attrs: mustprogress uwtable
define linkonce_odr void @_ZN3zmq20stream_engine_base_t10set_pollinEv(ptr noundef nonnull align 8 dereferenceable(1689) %this) #0 comdat align 2 {
entry:
  %this.addr = alloca ptr, align 8
  store ptr %this, ptr %this.addr, align 8
  %this1 = load ptr, ptr %this.addr, align 8
  %_handle = getelementptr inbounds %"class.zmq::stream_engine_base_t", ptr %this1, i32 0, i32 25
  %0 = load ptr, ptr %_handle, align 8
  call void @_ZN3zmq11io_object_t10set_pollinEPv(ptr noundef nonnull align 8 dereferenceable(16) %this1, ptr noundef %0)
  ret void
}

; Function Attrs: mustprogress uwtable
define void @_ZN3zmq11ws_engine_t13plug_internalEv(ptr noundef nonnull align 8 dereferenceable(25696) %this) unnamed_addr #0 align 2 {
entry:
  %this.addr = alloca ptr, align 8
  store ptr %this, ptr %this.addr, align 8
  %this1 = load ptr, ptr %this.addr, align 8
  call void @_ZN3zmq11ws_engine_t18start_ws_handshakeEv(ptr noundef nonnull align 8 dereferenceable(25696) %this1)
  call void @_ZN3zmq20stream_engine_base_t10set_pollinEv(ptr noundef nonnull align 8 dereferenceable(1689) %this1)
  call void @_ZN3zmq20stream_engine_base_t8in_eventEv(ptr noundef nonnull align 8 dereferenceable(1689) %this1)
  ret void
}