; Function Attrs: mustprogress uwtable
define void @_ZN3zmq11ws_engine_t13plug_internalEv(ptr noundef nonnull align 8 dereferenceable(25696) %this) unnamed_addr #0 align 2 {
entry:
  tail call void @_ZN3zmq11ws_engine_t18start_ws_handshakeEv(ptr noundef nonnull align 8 dereferenceable(25696) %this)
  %_handle.i = getelementptr inbounds i8, ptr %this, i64 1584
  %0 = load ptr, ptr %_handle.i, align 8
  tail call void @_ZN3zmq11io_object_t10set_pollinEPv(ptr noundef nonnull align 8 dereferenceable(16) %this, ptr noundef %0)
  tail call void @_ZN3zmq20stream_engine_base_t8in_eventEv(ptr noundef nonnull align 8 dereferenceable(1689) %this)
  ret void
}